target datalayout = "e-m:e-p270:32:32-p271:32:32-p272:64:64-i64:64-i128:128-f80:128-n8:16:32:64-S128"
target triple = "x86_64-pc-linux-gnu"

%struct.HLSContext = type { ptr, ptr, i32, ptr, i32, ptr, i32, ptr, i64, i32, i32, i32, i32, i64, i64, ptr, ptr, ptr, ptr, ptr, i32, i32, i32, i32, i32, i32, ptr, %struct.HLSCryptoContext }
%struct.HLSCryptoContext = type { ptr, [16 x i8], [16 x i8] }
%struct.playlist = type { [4096 x i8], %struct.FFIOContext, ptr, ptr, i32, ptr, i32, ptr, i32, ptr, ptr, i32, ptr, i32, i32, i32, i64, i64, i32, i64, i32, ptr, i32, i32, i64, i64, i32, i64, i64, ptr, ptr, i32, i32, i32, [4096 x i8], [16 x i8], i32, i64, i64, ptr, i32, ptr, i32, i32, ptr, %struct.HLSAudioSetupInfo, i64, i32, i32, i32, ptr, i32, ptr, i32 }
%struct.FFIOContext = type { %struct.AVIOContext, ptr, i32, i32, i64, i64, i64, i64, i32, i32, i32, i64 }
%struct.AVIOContext = type { ptr, ptr, i32, ptr, ptr, ptr, ptr, ptr, ptr, i64, i32, i32, i32, i32, i32, i64, ptr, ptr, ptr, ptr, i32, i32, ptr, ptr, ptr, i32, ptr, i64, i64 }
%struct.HLSAudioSetupInfo = type { i32, i32, i16, i8, i8, [10 x i8] }

; Function Attrs: nounwind uwtable
define internal ptr @new_playlist(ptr noundef %0, ptr noundef %1, ptr noundef %2) #0 {
  %4 = alloca ptr, align 8
  %5 = alloca ptr, align 8
  %6 = alloca ptr, align 8
  %7 = alloca ptr, align 8
  %8 = alloca ptr, align 8
  %9 = alloca i32, align 4
  %10 = alloca ptr, align 8
  %11 = alloca ptr, align 8
  store ptr %0, ptr %5, align 8, !tbaa !33
  store ptr %1, ptr %6, align 8, !tbaa !125
  store ptr %2, ptr %7, align 8, !tbaa !125
  call void @llvm.lifetime.start.p0(i64 8, ptr %8) #15
  %12 = call noalias ptr @av_mallocz(i64 noundef 8856)
  store ptr %12, ptr %8, align 8, !tbaa !54
  %13 = load ptr, ptr %8, align 8, !tbaa !54
  %14 = icmp ne ptr %13, null
  br i1 %14, label %16, label %15

15:                                               ; preds = %3
  store ptr null, ptr %4, align 8
  store i32 1, ptr %9, align 4
  br label %60

16:                                               ; preds = %3
  %17 = call ptr @av_packet_alloc()
  %18 = load ptr, ptr %8, align 8, !tbaa !54
  %19 = getelementptr inbounds nuw %struct.playlist, ptr %18, i32 0, i32 10
  store ptr %17, ptr %19, align 8, !tbaa !154
  %20 = load ptr, ptr %8, align 8, !tbaa !54
  %21 = getelementptr inbounds nuw %struct.playlist, ptr %20, i32 0, i32 10
  %22 = load ptr, ptr %21, align 8, !tbaa !154
  %23 = icmp ne ptr %22, null
  br i1 %23, label %26, label %24

24:                                               ; preds = %16
  %25 = load ptr, ptr %8, align 8, !tbaa !54
  call void @av_free(ptr noundef %25)
  store ptr null, ptr %4, align 8
  store i32 1, ptr %9, align 4
  br label %60

26:                                               ; preds = %16
  %27 = load ptr, ptr %8, align 8, !tbaa !54
  %28 = getelementptr inbounds nuw %struct.playlist, ptr %27, i32 0, i32 0
  %29 = getelementptr inbounds [4096 x i8], ptr %28, i64 0, i64 0
  %30 = load ptr, ptr %7, align 8, !tbaa !125
  %31 = load ptr, ptr %6, align 8, !tbaa !125
  %32 = call i32 @ff_make_absolute_url(ptr noundef %29, i32 noundef 4096, ptr noundef %30, ptr noundef %31)
  %33 = load ptr, ptr %8, align 8, !tbaa !54
  %34 = getelementptr inbounds nuw %struct.playlist, ptr %33, i32 0, i32 0
  %35 = getelementptr inbounds [4096 x i8], ptr %34, i64 0, i64 0
  %36 = load i8, ptr %35, align 8, !tbaa !83
  %37 = icmp ne i8 %36, 0
  br i1 %37, label %42, label %38

38:                                               ; preds = %26
  %39 = load ptr, ptr %8, align 8, !tbaa !54
  %40 = getelementptr inbounds nuw %struct.playlist, ptr %39, i32 0, i32 10
  call void @av_packet_free(ptr noundef %40)
  %41 = load ptr, ptr %8, align 8, !tbaa !54
  call void @av_free(ptr noundef %41)
  store ptr null, ptr %4, align 8
  store i32 1, ptr %9, align 4
  br label %60

42:                                               ; preds = %26
  %43 = load ptr, ptr %8, align 8, !tbaa !54
  %44 = getelementptr inbounds nuw %struct.playlist, ptr %43, i32 0, i32 46
  store i64 -9223372036854775808, ptr %44, align 8, !tbaa !165
  %45 = load ptr, ptr %8, align 8, !tbaa !54
  %46 = getelementptr inbounds nuw %struct.playlist, ptr %45, i32 0, i32 36
  store i32 -1, ptr %46, align 4, !tbaa !118
  %47 = load ptr, ptr %8, align 8, !tbaa !54
  %48 = getelementptr inbounds nuw %struct.playlist, ptr %47, i32 0, i32 37
  store i64 -9223372036854775808, ptr %48, align 8, !tbaa !258
  br label %49

49:                                               ; preds = %42
  call void @llvm.lifetime.start.p0(i64 8, ptr %10) #15
  %50 = load ptr, ptr %5, align 8, !tbaa !33
  %51 = getelementptr inbounds nuw %struct.HLSContext, ptr %50, i32 0, i32 5
  store ptr %51, ptr %10, align 8, !tbaa !209
  call void @llvm.lifetime.start.p0(i64 8, ptr %11) #15
  %52 = load ptr, ptr %8, align 8, !tbaa !54
  store ptr %52, ptr %11, align 8, !tbaa !54
  %53 = load ptr, ptr %10, align 8, !tbaa !209
  %54 = load ptr, ptr %5, align 8, !tbaa !33
  %55 = getelementptr inbounds nuw %struct.HLSContext, ptr %54, i32 0, i32 4
  %56 = load ptr, ptr %11, align 8, !tbaa !54
  call void @av_dynarray_add(ptr noundef %53, ptr noundef %55, ptr noundef %56)
  call void @llvm.lifetime.end.p0(i64 8, ptr %11) #15
  call void @llvm.lifetime.end.p0(i64 8, ptr %10) #15
  br label %57

57:                                               ; preds = %49
  br label %58

58:                                               ; preds = %57
  %59 = load ptr, ptr %8, align 8, !tbaa !54
  store ptr %59, ptr %4, align 8
  store i32 1, ptr %9, align 4
  br label %60

60:                                               ; preds = %58, %38, %24, %15
  call void @llvm.lifetime.end.p0(i64 8, ptr %8) #15
  %61 = load ptr, ptr %4, align 8
  ret ptr %61
}