; Function Attrs: nounwind uwtable
define internal fastcc ptr @new_playlist(ptr noundef %0, ptr noundef %1, ptr noundef %2) unnamed_addr #0 {
  %4 = tail call noalias ptr @av_mallocz(i64 noundef 8856) #16
  %.not = icmp eq ptr %4, null
  br i1 %.not, label %19, label %5

5:                                                ; preds = %3
  %6 = tail call ptr @av_packet_alloc() #16
  %7 = getelementptr inbounds nuw i8, ptr %4, i64 4440
  store ptr %6, ptr %7, align 8, !tbaa !174
  %.not21 = icmp eq ptr %6, null
  br i1 %.not21, label %8, label %9

8:                                                ; preds = %5
  tail call void @av_free(ptr noundef nonnull %4) #16
  br label %19

9:                                                ; preds = %5
  %10 = tail call i32 @ff_make_absolute_url(ptr noundef nonnull %4, i32 noundef 4096, ptr noundef %2, ptr noundef %1) #16
  %11 = load i8, ptr %4, align 8, !tbaa !76
  %.not22 = icmp eq i8 %11, 0
  br i1 %.not22, label %12, label %13

12:                                               ; preds = %9
  tail call void @av_packet_free(ptr noundef nonnull %7) #16
  tail call void @av_free(ptr noundef nonnull %4) #16
  br label %19

13:                                               ; preds = %9
  %14 = getelementptr inbounds nuw i8, ptr %4, i64 8800
  store i64 -9223372036854775808, ptr %14, align 8, !tbaa !170
  %15 = getelementptr inbounds nuw i8, ptr %4, i64 8716
  store i32 -1, ptr %15, align 4, !tbaa !113
  %16 = getelementptr inbounds nuw i8, ptr %4, i64 8720
  store i64 -9223372036854775808, ptr %16, align 8, !tbaa !180
  %17 = getelementptr inbounds nuw i8, ptr %0, i64 40
  %18 = getelementptr inbounds nuw i8, ptr %0, i64 32
  tail call void @av_dynarray_add(ptr noundef nonnull %17, ptr noundef nonnull %18, ptr noundef nonnull %4) #16
  br label %19

19:                                               ; preds = %3, %13, %12, %8
  %.0 = phi ptr [ %4, %13 ], [ null, %12 ], [ null, %8 ], [ null, %3 ]
  ret ptr %.0
}